; ModuleID = '57/2673.c'
source_filename = "57/2673.c"
target datalayout = "e-m:e-p270:32:32-p271:32:32-p272:64:64-i64:64-f80:128-n8:16:32:64-S128"
target triple = "x86_64-pc-linux-gnu"

@.str = private unnamed_addr constant [3 x i8] c"%d\00", align 1

; Function Attrs: noinline nounwind uwtable
define dso_local i32 @main() #0 {
  %1 = alloca i32, align 4
  %2 = alloca i32, align 4
  %3 = alloca i32, align 4
  %4 = alloca [100000 x i8], align 16
  %5 = alloca i32, align 4
  store i32 0, i32* %1, align 4
  %6 = call i32 (i8*, ...) @__isoc99_scanf(i8* getelementptr inbounds ([3 x i8], [3 x i8]* @.str, i64 0, i64 0), i32* %2)
  %7 = call i32 @getchar()
  store i32 0, i32* %5, align 4
  br label %8

8:                                                ; preds = %122, %0
  %9 = load i32, i32* %5, align 4
  %10 = load i32, i32* %2, align 4
  %11 = icmp slt i32 %9, %10
  br i1 %11, label %12, label %125

12:                                               ; preds = %8
  %13 = getelementptr inbounds [100000 x i8], [100000 x i8]* %4, i64 0, i64 0
  %14 = call i32 (i8*, ...) bitcast (i32 (...)* @gets to i32 (i8*, ...)*)(i8* %13)
  %15 = getelementptr inbounds [100000 x i8], [100000 x i8]* %4, i64 0, i64 0
  %16 = call i64 @strlen(i8* %15) #3
  %17 = trunc i64 %16 to i32
  store i32 %17, i32* %3, align 4
  %18 = load i32, i32* %3, align 4
  %19 = sub nsw i32 %18, 3
  %20 = sext i32 %19 to i64
  %21 = getelementptr inbounds [100000 x i8], [100000 x i8]* %4, i64 0, i64 %20
  %22 = load i8, i8* %21, align 1
  %23 = sext i8 %22 to i32
  %24 = icmp eq i32 %23, 105
  br i1 %24, label %25, label %59

25:                                               ; preds = %12
  %26 = load i32, i32* %3, align 4
  %27 = sub nsw i32 %26, 2
  %28 = sext i32 %27 to i64
  %29 = getelementptr inbounds [100000 x i8], [100000 x i8]* %4, i64 0, i64 %28
  %30 = load i8, i8* %29, align 1
  %31 = sext i8 %30 to i32
  %32 = icmp eq i32 %31, 110
  br i1 %32, label %33, label %59

33:                                               ; preds = %25
  %34 = load i32, i32* %3, align 4
  %35 = sub nsw i32 %34, 1
  %36 = sext i32 %35 to i64
  %37 = getelementptr inbounds [100000 x i8], [100000 x i8]* %4, i64 0, i64 %36
  %38 = load i8, i8* %37, align 1
  %39 = sext i8 %38 to i32
  %40 = icmp eq i32 %39, 103
  br i1 %40, label %41, label %59

41:                                               ; preds = %33
  %42 = load i32, i32* %3, align 4
  %43 = icmp ne i32 %42, 3
  br i1 %43, label %44, label %59

44:                                               ; preds = %41
  %45 = load i32, i32* %3, align 4
  %46 = sub nsw i32 %45, 3
  %47 = sext i32 %46 to i64
  %48 = getelementptr inbounds [100000 x i8], [100000 x i8]* %4, i64 0, i64 %47
  store i8 0, i8* %48, align 1
  %49 = load i32, i32* %3, align 4
  %50 = sub nsw i32 %49, 2
  %51 = sext i32 %50 to i64
  %52 = getelementptr inbounds [100000 x i8], [100000 x i8]* %4, i64 0, i64 %51
  store i8 0, i8* %52, align 1
  %53 = load i32, i32* %3, align 4
  %54 = sub nsw i32 %53, 1
  %55 = sext i32 %54 to i64
  %56 = getelementptr inbounds [100000 x i8], [100000 x i8]* %4, i64 0, i64 %55
  store i8 0, i8* %56, align 1
  %57 = getelementptr inbounds [100000 x i8], [100000 x i8]* %4, i64 0, i64 0
  %58 = call i32 @puts(i8* %57)
  br label %121

59:                                               ; preds = %41, %33, %25, %12
  %60 = load i32, i32* %3, align 4
  %61 = sub nsw i32 %60, 2
  %62 = sext i32 %61 to i64
  %63 = getelementptr inbounds [100000 x i8], [100000 x i8]* %4, i64 0, i64 %62
  %64 = load i8, i8* %63, align 1
  %65 = sext i8 %64 to i32
  %66 = icmp eq i32 %65, 101
  br i1 %66, label %67, label %89

67:                                               ; preds = %59
  %68 = load i32, i32* %3, align 4
  %69 = sub nsw i32 %68, 1
  %70 = sext i32 %69 to i64
  %71 = getelementptr inbounds [100000 x i8], [100000 x i8]* %4, i64 0, i64 %70
  %72 = load i8, i8* %71, align 1
  %73 = sext i8 %72 to i32
  %74 = icmp eq i32 %73, 114
  br i1 %74, label %75, label %89

75:                                               ; preds = %67
  %76 = load i32, i32* %3, align 4
  %77 = icmp ne i32 %76, 2
  br i1 %77, label %78, label %89

78:                                               ; preds = %75
  %79 = load i32, i32* %3, align 4
  %80 = sub nsw i32 %79, 2
  %81 = sext i32 %80 to i64
  %82 = getelementptr inbounds [100000 x i8], [100000 x i8]* %4, i64 0, i64 %81
  store i8 0, i8* %82, align 1
  %83 = load i32, i32* %3, align 4
  %84 = sub nsw i32 %83, 1
  %85 = sext i32 %84 to i64
  %86 = getelementptr inbounds [100000 x i8], [100000 x i8]* %4, i64 0, i64 %85
  store i8 0, i8* %86, align 1
  %87 = getelementptr inbounds [100000 x i8], [100000 x i8]* %4, i64 0, i64 0
  %88 = call i32 @puts(i8* %87)
  br label %120

89:                                               ; preds = %75, %67, %59
  %90 = load i32, i32* %3, align 4
  %91 = sub nsw i32 %90, 2
  %92 = sext i32 %91 to i64
  %93 = getelementptr inbounds [100000 x i8], [100000 x i8]* %4, i64 0, i64 %92
  %94 = load i8, i8* %93, align 1
  %95 = sext i8 %94 to i32
  %96 = icmp eq i32 %95, 108
  br i1 %96, label %97, label %119

97:                                               ; preds = %89
  %98 = load i32, i32* %3, align 4
  %99 = sub nsw i32 %98, 1
  %100 = sext i32 %99 to i64
  %101 = getelementptr inbounds [100000 x i8], [100000 x i8]* %4, i64 0, i64 %100
  %102 = load i8, i8* %101, align 1
  %103 = sext i8 %102 to i32
  %104 = icmp eq i32 %103, 121
  br i1 %104, label %105, label %119

105:                                              ; preds = %97
  %106 = load i32, i32* %3, align 4
  %107 = icmp ne i32 %106, 2
  br i1 %107, label %108, label %119

108:                                              ; preds = %105
  %109 = load i32, i32* %3, align 4
  %110 = sub nsw i32 %109, 2
  %111 = sext i32 %110 to i64
  %112 = getelementptr inbounds [100000 x i8], [100000 x i8]* %4, i64 0, i64 %111
  store i8 0, i8* %112, align 1
  %113 = load i32, i32* %3, align 4
  %114 = sub nsw i32 %113, 1
  %115 = sext i32 %114 to i64
  %116 = getelementptr inbounds [100000 x i8], [100000 x i8]* %4, i64 0, i64 %115
  store i8 0, i8* %116, align 1
  %117 = getelementptr inbounds [100000 x i8], [100000 x i8]* %4, i64 0, i64 0
  %118 = call i32 @puts(i8* %117)
  br label %119

119:                                              ; preds = %108, %105, %97, %89
  br label %120

120:                                              ; preds = %119, %78
  br label %121

121:                                              ; preds = %120, %44
  br label %122

122:                                              ; preds = %121
  %123 = load i32, i32* %5, align 4
  %124 = add nsw i32 %123, 1
  store i32 %124, i32* %5, align 4
  br label %8

125:                                              ; preds = %8
  ret i32 0
}

declare dso_local i32 @__isoc99_scanf(i8*, ...) #1

declare dso_local i32 @getchar() #1

declare dso_local i32 @gets(...) #1

; Function Attrs: nounwind readonly
declare dso_local i64 @strlen(i8*) #2

declare dso_local i32 @puts(i8*) #1


!llvm.module.flags = !{!0}
!llvm.ident = !{!1}

!0 = !{i32 1, !"wchar_size", i32 4}
!1 = !{!"clang version 10.0.0-4ubuntu1 "}
